target datalayout = "e-m:e-p270:32:32-p271:32:32-p272:64:64-i64:64-i128:128-f80:128-n8:16:32:64-S128"
target triple = "x86_64-pc-linux-gnu"

%struct.cli_bc_type = type { i32, ptr, i32, i32, i32 }
%struct.cli_bc = type { %struct.bytecode_metadata, i32, i32, i32, i32, ptr, ptr, ptr, ptr, i64, i32, ptr, ptr, ptr, ptr, i32, i16, ptr, i32, i32, i32, i32, ptr, i32, i32, ptr }
%struct.bytecode_metadata = type { ptr, ptr, i64, i32, i32, i32, i32, i32 }

@.str.266 = private unnamed_addr constant [19 x i8] c"type %d size is 0\0A\00", align 1

; Function Attrs: nounwind uwtable
define internal i32 @typesize(ptr noundef %0, i16 noundef zeroext %1) #0 {
  %3 = alloca i32, align 4
  %4 = alloca ptr, align 8
  %5 = alloca i16, align 2
  %6 = alloca ptr, align 8
  %7 = alloca i32, align 4
  store ptr %0, ptr %4, align 8
  store i16 %1, ptr %5, align 2
  %8 = load i16, ptr %5, align 2
  %9 = zext i16 %8 to i32
  %10 = and i32 %9, 32767
  %11 = trunc i32 %10 to i16
  store i16 %11, ptr %5, align 2
  %12 = load i16, ptr %5, align 2
  %13 = icmp ne i16 %12, 0
  br i1 %13, label %15, label %14

14:                                               ; preds = %2
  store i32 0, ptr %3, align 4
  br label %114

15:                                               ; preds = %2
  %16 = load i16, ptr %5, align 2
  %17 = zext i16 %16 to i32
  %18 = icmp sle i32 %17, 8
  br i1 %18, label %19, label %20

19:                                               ; preds = %15
  store i32 1, ptr %3, align 4
  br label %114

20:                                               ; preds = %15
  %21 = load i16, ptr %5, align 2
  %22 = zext i16 %21 to i32
  %23 = icmp sle i32 %22, 16
  br i1 %23, label %24, label %25

24:                                               ; preds = %20
  store i32 2, ptr %3, align 4
  br label %114

25:                                               ; preds = %20
  %26 = load i16, ptr %5, align 2
  %27 = zext i16 %26 to i32
  %28 = icmp sle i32 %27, 32
  br i1 %28, label %29, label %30

29:                                               ; preds = %25
  store i32 4, ptr %3, align 4
  br label %114

30:                                               ; preds = %25
  %31 = load i16, ptr %5, align 2
  %32 = zext i16 %31 to i32
  %33 = icmp sle i32 %32, 64
  br i1 %33, label %34, label %35

34:                                               ; preds = %30
  store i32 8, ptr %3, align 4
  br label %114

35:                                               ; preds = %30
  %36 = load ptr, ptr %4, align 8
  %37 = getelementptr inbounds %struct.cli_bc, ptr %36, i32 0, i32 6
  %38 = load ptr, ptr %37, align 8
  %39 = load i16, ptr %5, align 2
  %40 = zext i16 %39 to i32
  %41 = sub nsw i32 %40, 65
  %42 = sext i32 %41 to i64
  %43 = getelementptr inbounds %struct.cli_bc_type, ptr %38, i64 %42
  store ptr %43, ptr %6, align 8
  %44 = load ptr, ptr %6, align 8
  %45 = getelementptr inbounds %struct.cli_bc_type, ptr %44, i32 0, i32 3
  %46 = load i32, ptr %45, align 4
  %47 = icmp ne i32 %46, 0
  br i1 %47, label %48, label %52

48:                                               ; preds = %35
  %49 = load ptr, ptr %6, align 8
  %50 = getelementptr inbounds %struct.cli_bc_type, ptr %49, i32 0, i32 3
  %51 = load i32, ptr %50, align 4
  store i32 %51, ptr %3, align 4
  br label %114

52:                                               ; preds = %35
  %53 = load ptr, ptr %6, align 8
  %54 = getelementptr inbounds %struct.cli_bc_type, ptr %53, i32 0, i32 0
  %55 = load i32, ptr %54, align 8
  switch i32 %55, label %95 [
    i32 2, label %56
    i32 3, label %56
    i32 4, label %81
  ]

56:                                               ; preds = %52, %52
  store i32 0, ptr %7, align 4
  br label %57

57:                                               ; preds = %77, %56
  %58 = load i32, ptr %7, align 4
  %59 = load ptr, ptr %6, align 8
  %60 = getelementptr inbounds %struct.cli_bc_type, ptr %59, i32 0, i32 2
  %61 = load i32, ptr %60, align 8
  %62 = icmp ult i32 %58, %61
  br i1 %62, label %63, label %80

63:                                               ; preds = %57
  %64 = load ptr, ptr %4, align 8
  %65 = load ptr, ptr %6, align 8
  %66 = getelementptr inbounds %struct.cli_bc_type, ptr %65, i32 0, i32 1
  %67 = load ptr, ptr %66, align 8
  %68 = load i32, ptr %7, align 4
  %69 = zext i32 %68 to i64
  %70 = getelementptr inbounds i16, ptr %67, i64 %69
  %71 = load i16, ptr %70, align 2
  %72 = call i32 @typesize(ptr noundef %64, i16 noundef zeroext %71)
  %73 = load ptr, ptr %6, align 8
  %74 = getelementptr inbounds %struct.cli_bc_type, ptr %73, i32 0, i32 3
  %75 = load i32, ptr %74, align 4
  %76 = add i32 %75, %72
  store i32 %76, ptr %74, align 4
  br label %77

77:                                               ; preds = %63
  %78 = load i32, ptr %7, align 4
  %79 = add i32 %78, 1
  store i32 %79, ptr %7, align 4
  br label %57

80:                                               ; preds = %57
  br label %96

81:                                               ; preds = %52
  %82 = load ptr, ptr %6, align 8
  %83 = getelementptr inbounds %struct.cli_bc_type, ptr %82, i32 0, i32 2
  %84 = load i32, ptr %83, align 8
  %85 = load ptr, ptr %4, align 8
  %86 = load ptr, ptr %6, align 8
  %87 = getelementptr inbounds %struct.cli_bc_type, ptr %86, i32 0, i32 1
  %88 = load ptr, ptr %87, align 8
  %89 = getelementptr inbounds i16, ptr %88, i64 0
  %90 = load i16, ptr %89, align 2
  %91 = call i32 @typesize(ptr noundef %85, i16 noundef zeroext %90)
  %92 = mul i32 %84, %91
  %93 = load ptr, ptr %6, align 8
  %94 = getelementptr inbounds %struct.cli_bc_type, ptr %93, i32 0, i32 3
  store i32 %92, ptr %94, align 4
  br label %96

95:                                               ; preds = %52
  br label %96

96:                                               ; preds = %95, %81, %80
  %97 = load ptr, ptr %6, align 8
  %98 = getelementptr inbounds %struct.cli_bc_type, ptr %97, i32 0, i32 3
  %99 = load i32, ptr %98, align 4
  %100 = icmp ne i32 %99, 0
  br i1 %100, label %110, label %101

101:                                              ; preds = %96
  %102 = load ptr, ptr %6, align 8
  %103 = getelementptr inbounds %struct.cli_bc_type, ptr %102, i32 0, i32 0
  %104 = load i32, ptr %103, align 8
  %105 = icmp ne i32 %104, 0
  br i1 %105, label %106, label %110

106:                                              ; preds = %101
  %107 = load i16, ptr %5, align 2
  %108 = zext i16 %107 to i32
  %109 = sub nsw i32 %108, 65
  call void (ptr, ...) @cli_warnmsg(ptr noundef @.str.266, i32 noundef %109)
  br label %110

110:                                              ; preds = %106, %101, %96
  %111 = load ptr, ptr %6, align 8
  %112 = getelementptr inbounds %struct.cli_bc_type, ptr %111, i32 0, i32 3
  %113 = load i32, ptr %112, align 4
  store i32 %113, ptr %3, align 4
  br label %114

114:                                              ; preds = %110, %48, %34, %29, %24, %19, %14
  %115 = load i32, ptr %3, align 4
  ret i32 %115
}