; Function Attrs: nounwind uwtable
define internal fastcc i32 @typesize(ptr noundef %0, i16 noundef zeroext %1) unnamed_addr #0 {
  %3 = and i16 %1, 32767
  %.not = icmp eq i16 %3, 0
  br i1 %.not, label %48, label %4

4:                                                ; preds = %2
  %5 = zext nneg i16 %3 to i32
  %6 = icmp ult i16 %3, 9
  br i1 %6, label %48, label %7

7:                                                ; preds = %4
  %8 = icmp ult i16 %3, 17
  br i1 %8, label %48, label %9

9:                                                ; preds = %7
  %10 = icmp ult i16 %3, 33
  br i1 %10, label %48, label %11

11:                                               ; preds = %9
  %12 = icmp ult i16 %3, 65
  br i1 %12, label %48, label %13

13:                                               ; preds = %11
  %14 = getelementptr inbounds i8, ptr %0, i64 72
  %15 = load ptr, ptr %14, align 8
  %16 = add nsw i32 %5, -65
  %17 = zext nneg i32 %16 to i64
  %18 = getelementptr inbounds %struct.cli_bc_type, ptr %15, i64 %17
  %19 = getelementptr inbounds i8, ptr %18, i64 20
  %20 = load i32, ptr %19, align 4
  %.not30 = icmp eq i32 %20, 0
  br i1 %.not30, label %21, label %48

21:                                               ; preds = %13
  %22 = load i32, ptr %18, align 8
  switch i32 %22, label %.thread [
    i32 2, label %23
    i32 3, label %23
    i32 4, label %37
  ]

23:                                               ; preds = %21, %21
  %24 = getelementptr inbounds i8, ptr %18, i64 16
  %25 = load i32, ptr %24, align 8
  %.not37 = icmp eq i32 %25, 0
  br i1 %.not37, label %thread-pre-split34, label %.lr.ph

.lr.ph:                                           ; preds = %23
  %26 = getelementptr inbounds i8, ptr %18, i64 8
  br label %27

27:                                               ; preds = %.lr.ph, %27
  %indvars.iv = phi i64 [ 0, %.lr.ph ], [ %indvars.iv.next, %27 ]
  %28 = load ptr, ptr %26, align 8
  %29 = getelementptr inbounds i16, ptr %28, i64 %indvars.iv
  %30 = load i16, ptr %29, align 2
  %31 = tail call fastcc i32 @typesize(ptr noundef %0, i16 noundef zeroext %30)
  %32 = load i32, ptr %19, align 4
  %33 = add i32 %32, %31
  store i32 %33, ptr %19, align 4
  %indvars.iv.next = add nuw nsw i64 %indvars.iv, 1
  %34 = load i32, ptr %24, align 8
  %35 = zext i32 %34 to i64
  %36 = icmp ult i64 %indvars.iv.next, %35
  br i1 %36, label %27, label %thread-pre-split

37:                                               ; preds = %21
  %38 = getelementptr inbounds i8, ptr %18, i64 16
  %39 = load i32, ptr %38, align 8
  %40 = getelementptr inbounds i8, ptr %18, i64 8
  %41 = load ptr, ptr %40, align 8
  %42 = load i16, ptr %41, align 2
  %43 = tail call fastcc i32 @typesize(ptr noundef nonnull %0, i16 noundef zeroext %42)
  %44 = mul i32 %43, %39
  store i32 %44, ptr %19, align 4
  br label %thread-pre-split

thread-pre-split:                                 ; preds = %27, %37
  %45 = phi i32 [ %44, %37 ], [ %33, %27 ]
  %.not31 = icmp eq i32 %45, 0
  br i1 %.not31, label %thread-pre-split34, label %48

thread-pre-split34:                               ; preds = %23, %thread-pre-split
  %.pr35 = load i32, ptr %18, align 8
  br label %.thread

.thread:                                          ; preds = %21, %thread-pre-split34
  %46 = phi i32 [ %.pr35, %thread-pre-split34 ], [ %22, %21 ]
  %.not32 = icmp eq i32 %46, 0
  br i1 %.not32, label %48, label %47

47:                                               ; preds = %.thread
  tail call void (ptr, ...) @cli_warnmsg(ptr noundef nonnull @.str.266, i32 noundef %16) #25
  %.pre = load i32, ptr %19, align 4
  br label %48

48:                                               ; preds = %thread-pre-split, %.thread, %47, %13, %11, %9, %7, %4, %2
  %.026 = phi i32 [ 0, %2 ], [ 1, %4 ], [ 2, %7 ], [ 4, %9 ], [ 8, %11 ], [ %20, %13 ], [ %.pre, %47 ], [ 0, %.thread ], [ %45, %thread-pre-split ]
  ret i32 %.026
}